; ModuleID = 'bench/wasmedge/original/blake3.cpp.ll'
source_filename = "bench/wasmedge/original/blake3.cpp.ll"
target datalayout = "e-m:e-p270:32:32-p271:32:32-p272:64:64-i64:64-i128:128-f80:128-n8:16:32:64-S128"
target triple = "x86_64-pc-linux-gnu"

$__clang_call_terminate = comdat any

@_ZN8WasmEdge3AOT6Blake3C1Ev = unnamed_addr alias void (ptr), ptr @_ZN8WasmEdge3AOT6Blake3C2Ev

; Function Attrs: mustprogress nounwind uwtable
define void @_ZN8WasmEdge3AOT6Blake3C2Ev(ptr noundef nonnull align 8 dereferenceable(1912) %0) unnamed_addr #0 align 2 personality ptr @__gxx_personality_v0 {
  invoke void @blake3_hasher_init(ptr noundef nonnull %0)
          to label %2 unwind label %3

2:                                                ; preds = %1
  ret void

3:                                                ; preds = %1
  %4 = landingpad { ptr, i32 }
          catch ptr null
  %5 = extractvalue { ptr, i32 } %4, 0
  tail call void @__clang_call_terminate(ptr %5) #4
  unreachable
}

declare void @blake3_hasher_init(ptr noundef) local_unnamed_addr #1

declare i32 @__gxx_personality_v0(...)

; Function Attrs: noreturn nounwind uwtable
define linkonce_odr hidden void @__clang_call_terminate(ptr noundef %0) local_unnamed_addr #2 comdat {
  %2 = tail call ptr @__cxa_begin_catch(ptr %0) #5
  tail call void @_ZSt9terminatev() #4
  unreachable
}

declare ptr @__cxa_begin_catch(ptr) local_unnamed_addr

; Function Attrs: cold nofree noreturn
declare void @_ZSt9terminatev() local_unnamed_addr #3

; Function Attrs: mustprogress nounwind uwtable
define void @_ZN8WasmEdge3AOT6Blake36updateEN5cxx204spanIKhLm18446744073709551615EEE(ptr noundef nonnull align 8 dereferenceable(1912) %0, ptr %1, i64 %2) local_unnamed_addr #0 align 2 personality ptr @__gxx_personality_v0 {
  invoke void @blake3_hasher_update(ptr noundef nonnull %0, ptr noundef %1, i64 noundef %2)
          to label %4 unwind label %5

4:                                                ; preds = %3
  ret void

5:                                                ; preds = %3
  %6 = landingpad { ptr, i32 }
          catch ptr null
  %7 = extractvalue { ptr, i32 } %6, 0
  tail call void @__clang_call_terminate(ptr %7) #4
  unreachable
}

declare void @blake3_hasher_update(ptr noundef, ptr noundef, i64 noundef) local_unnamed_addr #1

; Function Attrs: mustprogress nounwind uwtable
define void @_ZN8WasmEdge3AOT6Blake38finalizeEN5cxx204spanIhLm18446744073709551615EEE(ptr noundef nonnull align 8 dereferenceable(1912) %0, ptr %1, i64 %2) local_unnamed_addr #0 align 2 personality ptr @__gxx_personality_v0 {
  invoke void @blake3_hasher_finalize(ptr noundef nonnull %0, ptr noundef %1, i64 noundef %2)
          to label %4 unwind label %5

4:                                                ; preds = %3
  ret void

5:                                                ; preds = %3
  %6 = landingpad { ptr, i32 }
          catch ptr null
  %7 = extractvalue { ptr, i32 } %6, 0
  tail call void @__clang_call_terminate(ptr %7) #4
  unreachable
}

declare void @blake3_hasher_finalize(ptr noundef, ptr noundef, i64 noundef) local_unnamed_addr #1


!llvm.module.flags = !{!0, !1, !2, !3}

!0 = !{i32 1, !"wchar_size", i32 4}
!1 = !{i32 8, !"PIC Level", i32 2}
!2 = !{i32 7, !"uwtable", i32 2}
!3 = !{i32 7, !"frame-pointer", i32 2}
